; Function Attrs: mustprogress uwtable
define void @_ZN11OpenImageIO6v3_1_07Strutil11sync_outputEP8_IO_FILENS0_17basic_string_viewIcSt11char_traitsIcEEEb(ptr noundef %0, ptr noundef readonly captures(none) %1, i1 noundef zeroext %2) local_unnamed_addr #6 personality ptr @__gxx_personality_v0 {
  %4 = getelementptr inbounds nuw i8, ptr %1, i64 8
  %5 = load i64, ptr %4, align 8, !tbaa !64
  %6 = icmp ne i64 %5, 0
  %7 = icmp ne ptr %0, null
  %or.cond = and i1 %7, %6
  br i1 %or.cond, label %8, label %17

8:                                                ; preds = %3
  %9 = tail call noundef i32 @pthread_mutex_lock(ptr noundef nonnull align 8 dereferenceable(40) @_ZN11OpenImageIO6v3_1_012_GLOBAL__N_112output_mutexE) #16
  %.not.i.i.i = icmp eq i32 %9, 0
  br i1 %.not.i.i.i, label %_ZNSt11unique_lockISt5mutexEC2ERS0_.exit, label %10

10:                                               ; preds = %8
  tail call void @_ZSt20__throw_system_errori(i32 noundef %9) #44
  unreachable

_ZNSt11unique_lockISt5mutexEC2ERS0_.exit:         ; preds = %8
  %11 = load ptr, ptr %1, align 8, !tbaa !67
  %12 = load i64, ptr %4, align 8, !tbaa !64
  %13 = tail call i64 @fwrite(ptr noundef %11, i64 noundef 1, i64 noundef %12, ptr noundef nonnull %0)
  br i1 %2, label %14, label %_ZNSt11unique_lockISt5mutexED2Ev.exit

14:                                               ; preds = %_ZNSt11unique_lockISt5mutexEC2ERS0_.exit
  %15 = tail call i32 @fflush(ptr noundef nonnull %0)
  br label %_ZNSt11unique_lockISt5mutexED2Ev.exit

_ZNSt11unique_lockISt5mutexED2Ev.exit:            ; preds = %_ZNSt11unique_lockISt5mutexEC2ERS0_.exit, %14
  %16 = tail call noundef i32 @pthread_mutex_unlock(ptr noundef nonnull align 8 dereferenceable(40) @_ZN11OpenImageIO6v3_1_012_GLOBAL__N_112output_mutexE) #16
  br label %17

17:                                               ; preds = %_ZNSt11unique_lockISt5mutexED2Ev.exit, %3
  ret void
}